(dp0
S'std'
p1
cnumpy.core.multiarray
_reconstruct
p2
(cnumpy
ndarray
p3
(I0
tp4
S'b'
p5
tp6
Rp7
(I1
(I2
tp8
cnumpy
dtype
p9
(S'f8'
p10
I0
I1
tp11
Rp12
(I3
S'<'
p13
NNNI-1
I-1
I0
tp14
bI00
S'D\xd5#S\xb4\xc54?\r,\x1d\x1c\x86\x1d2?'
p15
tp16
bsS'skipped'
p17
I0
sS'total_examples'
p18
I10767
sS'total_samples'
p19
I6615244800
sS'avg_samples'
p20
I614400
sS'avg_example_per_device'
p21
I5383
sS'mean'
p22
g2
(g3
(I0
tp23
g5
tp24
Rp25
(I1
(I2
tp26
g12
I00
S'\x12Z\x1ae\xc9)\x05>0O5A!\xc9\xf3='
p27
tp28
bs.